target datalayout = "e-m:e-p270:32:32-p271:32:32-p272:64:64-i64:64-i128:128-f80:128-n8:16:32:64-S128"
target triple = "x86_64-unknown-linux-gnu"

@stderr = external global ptr, align 8
@.str.2 = private unnamed_addr constant [112 x i8] c"generated/home/dtcxzyw/WorkSpace/Projects/compilers/llvm-opt-benchmark/bench/libzmq/libzmq/src/plain_server.cpp\00", align 1
@.str.3 = private unnamed_addr constant [12 x i8] c"%s (%s:%d)\0A\00", align 1
@_ZN3zmqL14welcome_prefixE = internal constant [9 x i8] c"\07WELCOME\00", align 1

; Function Attrs: mustprogress uwtable
define void @_ZN3zmq14plain_server_t15produce_welcomeEPNS_5msg_tE(ptr noundef %msg_) #0 align 2 {
entry:
  %msg_.addr = alloca ptr, align 8
  %rc = alloca i32, align 4
  %errstr = alloca ptr, align 8
  store ptr %msg_, ptr %msg_.addr, align 8
  %0 = load ptr, ptr %msg_.addr, align 8
  %call = call noundef i32 @_ZN3zmq5msg_t9init_sizeEm(ptr noundef nonnull align 8 dereferenceable(64) %0, i64 noundef 8)
  store i32 %call, ptr %rc, align 4
  br label %do.body

do.body:                                          ; preds = %entry
  %1 = load i32, ptr %rc, align 4
  %cmp = icmp eq i32 %1, 0
  %lnot = xor i1 %cmp, true
  br i1 %lnot, label %if.then, label %if.end

if.then:                                          ; preds = %do.body
  %call1 = call ptr @__errno_location() #13
  %2 = load i32, ptr %call1, align 4
  %call2 = call ptr @strerror(i32 noundef %2) #11
  store ptr %call2, ptr %errstr, align 8
  %3 = load ptr, ptr @stderr, align 8
  %4 = load ptr, ptr %errstr, align 8
  %call3 = call i32 (ptr, ptr, ...) @fprintf(ptr noundef %3, ptr noundef @.str.3, ptr noundef %4, ptr noundef @.str.2, i32 noundef 171)
  %5 = load ptr, ptr @stderr, align 8
  %call4 = call i32 @fflush(ptr noundef %5)
  %6 = load ptr, ptr %errstr, align 8
  call void @_ZN3zmq9zmq_abortEPKc(ptr noundef %6)
  br label %if.end

if.end:                                           ; preds = %if.then, %do.body
  br label %do.end

do.end:                                           ; preds = %if.end
  %7 = load ptr, ptr %msg_.addr, align 8
  %call5 = call noundef ptr @_ZN3zmq5msg_t4dataEv(ptr noundef nonnull align 8 dereferenceable(64) %7)
  call void @llvm.memcpy.p0.p0.i64(ptr align 1 %call5, ptr align 1 @_ZN3zmqL14welcome_prefixE, i64 8, i1 false)
  ret void
}