; Function Attrs: mustprogress uwtable
define void @_ZN3zmq14plain_server_t15produce_welcomeEPNS_5msg_tE(ptr noundef nonnull %msg_) local_unnamed_addr #0 align 2 {
entry:
  %call = tail call noundef i32 @_ZN3zmq5msg_t9init_sizeEm(ptr noundef nonnull align 8 dereferenceable(64) %msg_, i64 noundef 8)
  %cmp.not = icmp eq i32 %call, 0
  br i1 %cmp.not, label %do.end, label %if.then

if.then:                                          ; preds = %entry
  %call1 = tail call ptr @__errno_location() #15
  %0 = load i32, ptr %call1, align 4
  %call2 = tail call ptr @strerror(i32 noundef %0) #13
  %1 = load ptr, ptr @stderr, align 8
  %call3 = tail call i32 (ptr, ptr, ...) @fprintf(ptr noundef %1, ptr noundef nonnull @.str.3, ptr noundef %call2, ptr noundef nonnull @.str.2, i32 noundef 171) #12
  %2 = load ptr, ptr @stderr, align 8
  %call4 = tail call i32 @fflush(ptr noundef %2)
  tail call void @_ZN3zmq9zmq_abortEPKc(ptr noundef %call2)
  br label %do.end

do.end:                                           ; preds = %entry, %if.then
  %call5 = tail call noundef ptr @_ZN3zmq5msg_t4dataEv(ptr noundef nonnull align 8 dereferenceable(64) %msg_)
  store i64 4993734712284763911, ptr %call5, align 1
  ret void
}